; Function Attrs: mustprogress nounwind uwtable
define void @_ZN7glslang14TParseVersions13vulkanRemovedERKNS_10TSourceLocEPKc(ptr noundef nonnull align 8 dereferenceable(224) %0, ptr noundef nonnull align 8 dereferenceable(24) %1, ptr noundef %2) unnamed_addr #0 align 2 {
  %4 = getelementptr inbounds i8, ptr %0, i64 40
  %5 = load i32, ptr %4, align 8
  %6 = icmp sgt i32 %5, 0
  br i1 %6, label %7, label %15

7:                                                ; preds = %3
  %8 = getelementptr inbounds i8, ptr %0, i64 48
  %9 = load i8, ptr %8, align 8
  %10 = trunc i8 %9 to i1
  br i1 %10, label %15, label %11

11:                                               ; preds = %7
  %12 = load ptr, ptr %0, align 8
  %13 = getelementptr inbounds i8, ptr %12, i64 344
  %14 = load ptr, ptr %13, align 8
  tail call void (ptr, ptr, ptr, ptr, ptr, ...) %14(ptr noundef nonnull align 8 dereferenceable(224) %0, ptr noundef nonnull align 8 dereferenceable(24) %1, ptr noundef nonnull @.str.267, ptr noundef %2, ptr noundef nonnull @.str.240) #15
  br label %15

15:                                               ; preds = %11, %7, %3
  ret void
}